target datalayout = "e-m:e-p270:32:32-p271:32:32-p272:64:64-i64:64-i128:128-f80:128-n8:16:32:64-S128"
target triple = "x86_64-pc-linux-gnu"

%struct.dt_iop_lut3d_gui_data_t = type { ptr, ptr, ptr, ptr, ptr, ptr, ptr, i64 }

; Function Attrs: nounwind uwtable
define internal i32 @list_match_string(ptr noundef %0, ptr noundef %1, ptr noundef %2, ptr noundef %3) #0 {
  %5 = alloca ptr, align 8
  %6 = alloca ptr, align 8
  %7 = alloca ptr, align 8
  %8 = alloca ptr, align 8
  %9 = alloca ptr, align 8
  %10 = alloca i32, align 4
  %11 = alloca ptr, align 8
  %12 = alloca ptr, align 8
  store ptr %0, ptr %5, align 8, !tbaa !170
  store ptr %1, ptr %6, align 8, !tbaa !223
  store ptr %2, ptr %7, align 8, !tbaa !228
  store ptr %3, ptr %8, align 8, !tbaa !166
  call void @llvm.lifetime.start.p0(i64 8, ptr %9) #13
  store ptr null, ptr %9, align 8, !tbaa !41
  call void @llvm.lifetime.start.p0(i64 4, ptr %10) #13
  %13 = load ptr, ptr %5, align 8, !tbaa !170
  %14 = load ptr, ptr %7, align 8, !tbaa !228
  call void (ptr, ptr, ...) @gtk_tree_model_get(ptr noundef %13, ptr noundef %14, i32 noundef 0, ptr noundef %9, i32 noundef -1)
  call void @llvm.lifetime.start.p0(i64 8, ptr %11) #13
  %15 = load ptr, ptr %9, align 8, !tbaa !41
  %16 = call noalias ptr @g_utf8_strdown(ptr noundef %15, i64 noundef -1)
  store ptr %16, ptr %11, align 8, !tbaa !41
  call void @llvm.lifetime.start.p0(i64 8, ptr %12) #13
  %17 = load ptr, ptr %8, align 8, !tbaa !166
  %18 = getelementptr inbounds nuw %struct.dt_iop_lut3d_gui_data_t, ptr %17, i32 0, i32 4
  %19 = load ptr, ptr %18, align 8, !tbaa !188
  %20 = call i64 @gtk_entry_get_type() #16
  %21 = call ptr @g_type_check_instance_cast(ptr noundef %19, i64 noundef %20)
  %22 = call ptr @gtk_entry_get_text(ptr noundef %21)
  %23 = call noalias ptr @g_utf8_strdown(ptr noundef %22, i64 noundef -1)
  store ptr %23, ptr %12, align 8, !tbaa !41
  %24 = load ptr, ptr %11, align 8, !tbaa !41
  %25 = load ptr, ptr %12, align 8, !tbaa !41
  %26 = call ptr @g_strrstr(ptr noundef %24, ptr noundef %25)
  %27 = icmp ne ptr %26, null
  %28 = zext i1 %27 to i32
  store i32 %28, ptr %10, align 4, !tbaa !16
  %29 = load ptr, ptr %11, align 8, !tbaa !41
  call void @g_free(ptr noundef %29)
  %30 = load ptr, ptr %12, align 8, !tbaa !41
  call void @g_free(ptr noundef %30)
  %31 = load ptr, ptr %9, align 8, !tbaa !41
  call void @g_free(ptr noundef %31)
  %32 = load ptr, ptr %5, align 8, !tbaa !170
  %33 = load ptr, ptr %7, align 8, !tbaa !228
  %34 = load i32, ptr %10, align 4, !tbaa !16
  call void (ptr, ptr, ...) @gtk_list_store_set(ptr noundef %32, ptr noundef %33, i32 noundef 1, i32 noundef %34, i32 noundef -1)
  call void @llvm.lifetime.end.p0(i64 8, ptr %12) #13
  call void @llvm.lifetime.end.p0(i64 8, ptr %11) #13
  call void @llvm.lifetime.end.p0(i64 4, ptr %10) #13
  call void @llvm.lifetime.end.p0(i64 8, ptr %9) #13
  ret i32 0
}