; Function Attrs: nounwind uwtable
define internal noundef i32 @list_match_string(ptr noundef %0, ptr readnone captures(none) %1, ptr noundef %2, ptr noundef readonly captures(none) %3) #1 {
  %5 = alloca ptr, align 8
  call void @llvm.lifetime.start.p0(i64 8, ptr nonnull %5) #25
  store ptr null, ptr %5, align 8, !tbaa !74
  call void (ptr, ptr, ...) @gtk_tree_model_get(ptr noundef %0, ptr noundef %2, i32 noundef 0, ptr noundef nonnull %5, i32 noundef -1) #25
  %6 = load ptr, ptr %5, align 8, !tbaa !74
  %7 = call noalias ptr @g_utf8_strdown(ptr noundef %6, i64 noundef -1) #25
  %8 = getelementptr inbounds nuw i8, ptr %3, i64 32
  %9 = load ptr, ptr %8, align 8, !tbaa !150
  %10 = tail call i64 @gtk_entry_get_type() #28
  %11 = call ptr @g_type_check_instance_cast(ptr noundef %9, i64 noundef %10) #25
  %12 = call ptr @gtk_entry_get_text(ptr noundef %11) #25
  %13 = call noalias ptr @g_utf8_strdown(ptr noundef %12, i64 noundef -1) #25
  %14 = call ptr @g_strrstr(ptr noundef %7, ptr noundef %13) #25
  %15 = icmp ne ptr %14, null
  %16 = zext i1 %15 to i32
  call void @g_free(ptr noundef %7) #25
  call void @g_free(ptr noundef %13) #25
  %17 = load ptr, ptr %5, align 8, !tbaa !74
  call void @g_free(ptr noundef %17) #25
  call void (ptr, ptr, ...) @gtk_list_store_set(ptr noundef %0, ptr noundef %2, i32 noundef 1, i32 noundef %16, i32 noundef -1) #25
  call void @llvm.lifetime.end.p0(i64 8, ptr nonnull %5) #25
  ret i32 0
}